; ModuleID = '57/2201.c'
source_filename = "57/2201.c"
target datalayout = "e-m:e-p270:32:32-p271:32:32-p272:64:64-i64:64-f80:128-n8:16:32:64-S128"
target triple = "x86_64-pc-linux-gnu"

@.str = private unnamed_addr constant [3 x i8] c"%d\00", align 1
@.str.1 = private unnamed_addr constant [3 x i8] c"%s\00", align 1
@.str.2 = private unnamed_addr constant [4 x i8] c"%s\0A\00", align 1

; Function Attrs: noinline nounwind uwtable
define dso_local void @main() #0 {
  %1 = alloca i32, align 4
  %2 = alloca i32, align 4
  %3 = alloca i32, align 4
  %4 = alloca i32, align 4
  %5 = alloca [50 x [10 x i8]], align 16
  %6 = call i32 (i8*, ...) @__isoc99_scanf(i8* getelementptr inbounds ([3 x i8], [3 x i8]* @.str, i64 0, i64 0), i32* %1)
  store i32 0, i32* %2, align 4
  br label %7

7:                                                ; preds = %17, %0
  %8 = load i32, i32* %2, align 4
  %9 = load i32, i32* %1, align 4
  %10 = icmp slt i32 %8, %9
  br i1 %10, label %11, label %20

11:                                               ; preds = %7
  %12 = load i32, i32* %2, align 4
  %13 = sext i32 %12 to i64
  %14 = getelementptr inbounds [50 x [10 x i8]], [50 x [10 x i8]]* %5, i64 0, i64 %13
  %15 = getelementptr inbounds [10 x i8], [10 x i8]* %14, i64 0, i64 0
  %16 = call i32 (i8*, ...) @__isoc99_scanf(i8* getelementptr inbounds ([3 x i8], [3 x i8]* @.str.1, i64 0, i64 0), i8* %15)
  br label %17

17:                                               ; preds = %11
  %18 = load i32, i32* %2, align 4
  %19 = add nsw i32 %18, 1
  store i32 %19, i32* %2, align 4
  br label %7

20:                                               ; preds = %7
  store i32 0, i32* %2, align 4
  br label %21

21:                                               ; preds = %148, %20
  %22 = load i32, i32* %2, align 4
  %23 = load i32, i32* %1, align 4
  %24 = icmp slt i32 %22, %23
  br i1 %24, label %25, label %151

25:                                               ; preds = %21
  %26 = load i32, i32* %2, align 4
  %27 = sext i32 %26 to i64
  %28 = getelementptr inbounds [50 x [10 x i8]], [50 x [10 x i8]]* %5, i64 0, i64 %27
  %29 = getelementptr inbounds [10 x i8], [10 x i8]* %28, i64 0, i64 0
  %30 = call i64 @strlen(i8* %29) #3
  %31 = trunc i64 %30 to i32
  %32 = sub nsw i32 %31, 1
  store i32 %32, i32* %3, align 4
  br label %33

33:                                               ; preds = %144, %25
  %34 = load i32, i32* %3, align 4
  %35 = icmp sge i32 %34, 0
  br i1 %35, label %36, label %147

36:                                               ; preds = %33
  %37 = load i32, i32* %2, align 4
  %38 = sext i32 %37 to i64
  %39 = getelementptr inbounds [50 x [10 x i8]], [50 x [10 x i8]]* %5, i64 0, i64 %38
  %40 = getelementptr inbounds [10 x i8], [10 x i8]* %39, i64 0, i64 0
  %41 = call i64 @strlen(i8* %40) #3
  %42 = trunc i64 %41 to i32
  store i32 %42, i32* %4, align 4
  %43 = load i32, i32* %2, align 4
  %44 = sext i32 %43 to i64
  %45 = getelementptr inbounds [50 x [10 x i8]], [50 x [10 x i8]]* %5, i64 0, i64 %44
  %46 = load i32, i32* %4, align 4
  %47 = sub nsw i32 %46, 1
  %48 = sext i32 %47 to i64
  %49 = getelementptr inbounds [10 x i8], [10 x i8]* %45, i64 0, i64 %48
  %50 = load i8, i8* %49, align 1
  %51 = sext i8 %50 to i32
  %52 = icmp eq i32 %51, 114
  br i1 %52, label %53, label %72

53:                                               ; preds = %36
  %54 = load i32, i32* %2, align 4
  %55 = sext i32 %54 to i64
  %56 = getelementptr inbounds [50 x [10 x i8]], [50 x [10 x i8]]* %5, i64 0, i64 %55
  %57 = load i32, i32* %4, align 4
  %58 = sub nsw i32 %57, 2
  %59 = sext i32 %58 to i64
  %60 = getelementptr inbounds [10 x i8], [10 x i8]* %56, i64 0, i64 %59
  %61 = load i8, i8* %60, align 1
  %62 = sext i8 %61 to i32
  %63 = icmp eq i32 %62, 101
  br i1 %63, label %64, label %72

64:                                               ; preds = %53
  %65 = load i32, i32* %2, align 4
  %66 = sext i32 %65 to i64
  %67 = getelementptr inbounds [50 x [10 x i8]], [50 x [10 x i8]]* %5, i64 0, i64 %66
  %68 = load i32, i32* %4, align 4
  %69 = sub nsw i32 %68, 2
  %70 = sext i32 %69 to i64
  %71 = getelementptr inbounds [10 x i8], [10 x i8]* %67, i64 0, i64 %70
  store i8 0, i8* %71, align 1
  br label %72

72:                                               ; preds = %64, %53, %36
  %73 = load i32, i32* %2, align 4
  %74 = sext i32 %73 to i64
  %75 = getelementptr inbounds [50 x [10 x i8]], [50 x [10 x i8]]* %5, i64 0, i64 %74
  %76 = load i32, i32* %4, align 4
  %77 = sub nsw i32 %76, 1
  %78 = sext i32 %77 to i64
  %79 = getelementptr inbounds [10 x i8], [10 x i8]* %75, i64 0, i64 %78
  %80 = load i8, i8* %79, align 1
  %81 = sext i8 %80 to i32
  %82 = icmp eq i32 %81, 121
  br i1 %82, label %83, label %102

83:                                               ; preds = %72
  %84 = load i32, i32* %2, align 4
  %85 = sext i32 %84 to i64
  %86 = getelementptr inbounds [50 x [10 x i8]], [50 x [10 x i8]]* %5, i64 0, i64 %85
  %87 = load i32, i32* %4, align 4
  %88 = sub nsw i32 %87, 2
  %89 = sext i32 %88 to i64
  %90 = getelementptr inbounds [10 x i8], [10 x i8]* %86, i64 0, i64 %89
  %91 = load i8, i8* %90, align 1
  %92 = sext i8 %91 to i32
  %93 = icmp eq i32 %92, 108
  br i1 %93, label %94, label %102

94:                                               ; preds = %83
  %95 = load i32, i32* %2, align 4
  %96 = sext i32 %95 to i64
  %97 = getelementptr inbounds [50 x [10 x i8]], [50 x [10 x i8]]* %5, i64 0, i64 %96
  %98 = load i32, i32* %4, align 4
  %99 = sub nsw i32 %98, 2
  %100 = sext i32 %99 to i64
  %101 = getelementptr inbounds [10 x i8], [10 x i8]* %97, i64 0, i64 %100
  store i8 0, i8* %101, align 1
  br label %102

102:                                              ; preds = %94, %83, %72
  %103 = load i32, i32* %2, align 4
  %104 = sext i32 %103 to i64
  %105 = getelementptr inbounds [50 x [10 x i8]], [50 x [10 x i8]]* %5, i64 0, i64 %104
  %106 = load i32, i32* %4, align 4
  %107 = sub nsw i32 %106, 1
  %108 = sext i32 %107 to i64
  %109 = getelementptr inbounds [10 x i8], [10 x i8]* %105, i64 0, i64 %108
  %110 = load i8, i8* %109, align 1
  %111 = sext i8 %110 to i32
  %112 = icmp eq i32 %111, 103
  br i1 %112, label %113, label %143

113:                                              ; preds = %102
  %114 = load i32, i32* %2, align 4
  %115 = sext i32 %114 to i64
  %116 = getelementptr inbounds [50 x [10 x i8]], [50 x [10 x i8]]* %5, i64 0, i64 %115
  %117 = load i32, i32* %4, align 4
  %118 = sub nsw i32 %117, 2
  %119 = sext i32 %118 to i64
  %120 = getelementptr inbounds [10 x i8], [10 x i8]* %116, i64 0, i64 %119
  %121 = load i8, i8* %120, align 1
  %122 = sext i8 %121 to i32
  %123 = icmp eq i32 %122, 110
  br i1 %123, label %124, label %143

124:                                              ; preds = %113
  %125 = load i32, i32* %2, align 4
  %126 = sext i32 %125 to i64
  %127 = getelementptr inbounds [50 x [10 x i8]], [50 x [10 x i8]]* %5, i64 0, i64 %126
  %128 = load i32, i32* %4, align 4
  %129 = sub nsw i32 %128, 3
  %130 = sext i32 %129 to i64
  %131 = getelementptr inbounds [10 x i8], [10 x i8]* %127, i64 0, i64 %130
  %132 = load i8, i8* %131, align 1
  %133 = sext i8 %132 to i32
  %134 = icmp eq i32 %133, 105
  br i1 %134, label %135, label %143

135:                                              ; preds = %124
  %136 = load i32, i32* %2, align 4
  %137 = sext i32 %136 to i64
  %138 = getelementptr inbounds [50 x [10 x i8]], [50 x [10 x i8]]* %5, i64 0, i64 %137
  %139 = load i32, i32* %4, align 4
  %140 = sub nsw i32 %139, 3
  %141 = sext i32 %140 to i64
  %142 = getelementptr inbounds [10 x i8], [10 x i8]* %138, i64 0, i64 %141
  store i8 0, i8* %142, align 1
  br label %143

143:                                              ; preds = %135, %124, %113, %102
  br label %144

144:                                              ; preds = %143
  %145 = load i32, i32* %3, align 4
  %146 = add nsw i32 %145, -1
  store i32 %146, i32* %3, align 4
  br label %33

147:                                              ; preds = %33
  br label %148

148:                                              ; preds = %147
  %149 = load i32, i32* %2, align 4
  %150 = add nsw i32 %149, 1
  store i32 %150, i32* %2, align 4
  br label %21

151:                                              ; preds = %21
  store i32 0, i32* %2, align 4
  br label %152

152:                                              ; preds = %162, %151
  %153 = load i32, i32* %2, align 4
  %154 = load i32, i32* %1, align 4
  %155 = icmp slt i32 %153, %154
  br i1 %155, label %156, label %165

156:                                              ; preds = %152
  %157 = load i32, i32* %2, align 4
  %158 = sext i32 %157 to i64
  %159 = getelementptr inbounds [50 x [10 x i8]], [50 x [10 x i8]]* %5, i64 0, i64 %158
  %160 = getelementptr inbounds [10 x i8], [10 x i8]* %159, i64 0, i64 0
  %161 = call i32 (i8*, ...) @printf(i8* getelementptr inbounds ([4 x i8], [4 x i8]* @.str.2, i64 0, i64 0), i8* %160)
  br label %162

162:                                              ; preds = %156
  %163 = load i32, i32* %2, align 4
  %164 = add nsw i32 %163, 1
  store i32 %164, i32* %2, align 4
  br label %152

165:                                              ; preds = %152
  ret void
}

declare dso_local i32 @__isoc99_scanf(i8*, ...) #1

; Function Attrs: nounwind readonly
declare dso_local i64 @strlen(i8*) #2

declare dso_local i32 @printf(i8*, ...) #1


!llvm.module.flags = !{!0}
!llvm.ident = !{!1}

!0 = !{i32 1, !"wchar_size", i32 4}
!1 = !{!"clang version 10.0.0-4ubuntu1 "}
