; ModuleID = 'source-C-CXX/56/2201.c'
source_filename = "source-C-CXX/56/2201.c"
target datalayout = "e-m:e-p270:32:32-p271:32:32-p272:64:64-i64:64-f80:128-n8:16:32:64-S128"
target triple = "x86_64-pc-linux-gnu"

@.str = private unnamed_addr constant [3 x i8] c"%d\00", align 1
@.str.1 = private unnamed_addr constant [3 x i8] c"%s\00", align 1

; Function Attrs: nofree nounwind sspstrong uwtable
define dso_local void @main() local_unnamed_addr #0 {
  %1 = alloca i32, align 4
  %2 = alloca [50 x [10 x i8]], align 16
  %3 = bitcast i32* %1 to i8*
  call void @llvm.lifetime.start.p0i8(i64 4, i8* nonnull %3) #5
  %4 = getelementptr inbounds [50 x [10 x i8]], [50 x [10 x i8]]* %2, i64 0, i64 0, i64 0
  call void @llvm.lifetime.start.p0i8(i64 500, i8* nonnull %4) #5
  %5 = call i32 (i8*, ...) @__isoc99_scanf(i8* getelementptr inbounds ([3 x i8], [3 x i8]* @.str, i64 0, i64 0), i32* nonnull %1)
  %6 = load i32, i32* %1, align 4, !tbaa !5
  %7 = icmp sgt i32 %6, 0
  br i1 %7, label %12, label %75

8:                                                ; preds = %12
  %9 = icmp sgt i32 %17, 0
  br i1 %9, label %10, label %75

10:                                               ; preds = %8
  %11 = zext i32 %17 to i64
  br label %21

12:                                               ; preds = %0, %12
  %13 = phi i64 [ %16, %12 ], [ 0, %0 ]
  %14 = getelementptr inbounds [50 x [10 x i8]], [50 x [10 x i8]]* %2, i64 0, i64 %13, i64 0
  %15 = call i32 (i8*, ...) @__isoc99_scanf(i8* getelementptr inbounds ([3 x i8], [3 x i8]* @.str.1, i64 0, i64 0), i8* nonnull %14)
  %16 = add nuw nsw i64 %13, 1
  %17 = load i32, i32* %1, align 4, !tbaa !5
  %18 = sext i32 %17 to i64
  %19 = icmp slt i64 %16, %18
  br i1 %19, label %12, label %8, !llvm.loop !9

20:                                               ; preds = %64
  br i1 %9, label %67, label %75

21:                                               ; preds = %10, %64
  %22 = phi i64 [ 0, %10 ], [ %65, %64 ]
  %23 = getelementptr inbounds [50 x [10 x i8]], [50 x [10 x i8]]* %2, i64 0, i64 %22, i64 0
  %24 = call i64 @strlen(i8* noundef nonnull %23) #6
  %25 = trunc i64 %24 to i32
  %26 = icmp sgt i32 %25, 0
  br i1 %26, label %27, label %64

27:                                               ; preds = %21, %62
  %28 = phi i32 [ %29, %62 ], [ %25, %21 ]
  %29 = add nsw i32 %28, -1
  %30 = call i64 @strlen(i8* noundef nonnull %23) #6
  %31 = shl i64 %30, 32
  %32 = add i64 %31, -4294967296
  %33 = ashr exact i64 %32, 32
  %34 = getelementptr inbounds [50 x [10 x i8]], [50 x [10 x i8]]* %2, i64 0, i64 %22, i64 %33
  %35 = load i8, i8* %34, align 1, !tbaa !11
  switch i8 %35, label %62 [
    i8 114, label %36
    i8 121, label %42
    i8 103, label %48
  ]

36:                                               ; preds = %27
  %37 = add i64 %31, -8589934592
  %38 = ashr exact i64 %37, 32
  %39 = getelementptr inbounds [50 x [10 x i8]], [50 x [10 x i8]]* %2, i64 0, i64 %22, i64 %38
  %40 = load i8, i8* %39, align 1, !tbaa !11
  %41 = icmp eq i8 %40, 101
  br i1 %41, label %60, label %62

42:                                               ; preds = %27
  %43 = add i64 %31, -8589934592
  %44 = ashr exact i64 %43, 32
  %45 = getelementptr inbounds [50 x [10 x i8]], [50 x [10 x i8]]* %2, i64 0, i64 %22, i64 %44
  %46 = load i8, i8* %45, align 1, !tbaa !11
  %47 = icmp eq i8 %46, 108
  br i1 %47, label %60, label %62

48:                                               ; preds = %27
  %49 = add i64 %31, -8589934592
  %50 = ashr exact i64 %49, 32
  %51 = getelementptr inbounds [50 x [10 x i8]], [50 x [10 x i8]]* %2, i64 0, i64 %22, i64 %50
  %52 = load i8, i8* %51, align 1, !tbaa !11
  %53 = icmp eq i8 %52, 110
  br i1 %53, label %54, label %62

54:                                               ; preds = %48
  %55 = add i64 %31, -12884901888
  %56 = ashr exact i64 %55, 32
  %57 = getelementptr inbounds [50 x [10 x i8]], [50 x [10 x i8]]* %2, i64 0, i64 %22, i64 %56
  %58 = load i8, i8* %57, align 1, !tbaa !11
  %59 = icmp eq i8 %58, 105
  br i1 %59, label %60, label %62

60:                                               ; preds = %54, %42, %36
  %61 = phi i8* [ %39, %36 ], [ %45, %42 ], [ %57, %54 ]
  store i8 0, i8* %61, align 1, !tbaa !11
  br label %62

62:                                               ; preds = %60, %27, %36, %42, %48, %54
  %63 = icmp sgt i32 %28, 1
  br i1 %63, label %27, label %64, !llvm.loop !12

64:                                               ; preds = %62, %21
  %65 = add nuw nsw i64 %22, 1
  %66 = icmp eq i64 %65, %11
  br i1 %66, label %20, label %21, !llvm.loop !13

67:                                               ; preds = %20, %67
  %68 = phi i64 [ %71, %67 ], [ 0, %20 ]
  %69 = getelementptr inbounds [50 x [10 x i8]], [50 x [10 x i8]]* %2, i64 0, i64 %68, i64 0
  %70 = call i32 @puts(i8* nonnull %69)
  %71 = add nuw nsw i64 %68, 1
  %72 = load i32, i32* %1, align 4, !tbaa !5
  %73 = sext i32 %72 to i64
  %74 = icmp slt i64 %71, %73
  br i1 %74, label %67, label %75, !llvm.loop !14

75:                                               ; preds = %67, %8, %0, %20
  call void @llvm.lifetime.end.p0i8(i64 500, i8* nonnull %4) #5
  call void @llvm.lifetime.end.p0i8(i64 4, i8* nonnull %3) #5
  ret void
}

; Function Attrs: argmemonly mustprogress nofree nosync nounwind willreturn
declare void @llvm.lifetime.start.p0i8(i64 immarg, i8* nocapture) #1

; Function Attrs: nofree nounwind
declare noundef i32 @__isoc99_scanf(i8* nocapture noundef readonly, ...) local_unnamed_addr #2

; Function Attrs: argmemonly mustprogress nofree nounwind readonly willreturn
declare i64 @strlen(i8* nocapture) local_unnamed_addr #3

; Function Attrs: argmemonly mustprogress nofree nosync nounwind willreturn
declare void @llvm.lifetime.end.p0i8(i64 immarg, i8* nocapture) #1

; Function Attrs: nofree nounwind
declare noundef i32 @puts(i8* nocapture noundef readonly) local_unnamed_addr #4


!llvm.module.flags = !{!0, !1, !2, !3}
!llvm.ident = !{!4}

!0 = !{i32 1, !"wchar_size", i32 4}
!1 = !{i32 7, !"PIC Level", i32 2}
!2 = !{i32 7, !"PIE Level", i32 2}
!3 = !{i32 7, !"uwtable", i32 1}
!4 = !{!"clang version 13.0.0"}
!5 = !{!6, !6, i64 0}
!6 = !{!"int", !7, i64 0}
!7 = !{!"omnipotent char", !8, i64 0}
!8 = !{!"Simple C/C++ TBAA"}
!9 = distinct !{!9, !10}
!10 = !{!"llvm.loop.mustprogress"}
!11 = !{!7, !7, i64 0}
!12 = distinct !{!12, !10}
!13 = distinct !{!13, !10}
!14 = distinct !{!14, !10}
